; Function Attrs: nounwind uwtable
define dso_local void @ExecHashRetrieveInstrumentation(ptr noundef captures(none) %0) local_unnamed_addr #0 {
  %2 = getelementptr inbounds nuw i8, ptr %0, i64 232
  %3 = load ptr, ptr %2, align 8
  %4 = icmp eq ptr %3, null
  br i1 %4, label %11, label %5

5:                                                ; preds = %1
  %6 = load i32, ptr %3, align 8
  %7 = sext i32 %6 to i64
  %8 = mul nsw i64 %7, 24
  %9 = add nsw i64 %8, 8
  %10 = tail call ptr @palloc(i64 noundef %9) #16
  store ptr %10, ptr %2, align 8
  tail call void @llvm.memcpy.p0.p0.i64(ptr align 8 %10, ptr nonnull align 8 %3, i64 %9, i1 false)
  br label %11

11:                                               ; preds = %1, %5
  ret void
}